target datalayout = "e-m:e-p270:32:32-p271:32:32-p272:64:64-i64:64-i128:128-f80:128-n8:16:32:64-S128"
target triple = "x86_64-pc-linux-gnu"

%struct.ident_t = type { i32, i32, i32, i32, ptr }
%"struct.OpenSubdiv::v3_6_0::Osd::BufferDescriptor" = type { i32, i32, i32 }
%"struct.OpenSubdiv::v3_6_0::Osd::BufferAdapter" = type { ptr, i32, i32 }

@2 = private unnamed_addr constant %struct.ident_t { i32 0, i32 2, i32 0, i32 22, ptr @0 }, align 8

; Function Attrs: mustprogress nounwind uwtable
define linkonce_odr void @_ZN10OpenSubdiv6v3_6_03Osd13BufferAdapterIKfEC2EPS3_ii(ptr noundef nonnull align 8 dereferenceable(16) %0, ptr noundef %1, i32 noundef %2, i32 noundef %3) unnamed_addr #5 comdat align 2 {
  %5 = alloca ptr, align 8
  %6 = alloca ptr, align 8
  %7 = alloca i32, align 4
  %8 = alloca i32, align 4
  store ptr %0, ptr %5, align 8
  store ptr %1, ptr %6, align 8
  store i32 %2, ptr %7, align 4
  store i32 %3, ptr %8, align 4
  %9 = load ptr, ptr %5, align 8
  %10 = getelementptr inbounds nuw %"struct.OpenSubdiv::v3_6_0::Osd::BufferAdapter", ptr %9, i32 0, i32 0
  %11 = load ptr, ptr %6, align 8
  store ptr %11, ptr %10, align 8
  %12 = getelementptr inbounds nuw %"struct.OpenSubdiv::v3_6_0::Osd::BufferAdapter", ptr %9, i32 0, i32 1
  %13 = load i32, ptr %7, align 4
  store i32 %13, ptr %12, align 8
  %14 = getelementptr inbounds nuw %"struct.OpenSubdiv::v3_6_0::Osd::BufferAdapter", ptr %9, i32 0, i32 2
  %15 = load i32, ptr %8, align 4
  store i32 %15, ptr %14, align 4
  ret void
}

; Function Attrs: mustprogress uwtable
define noundef zeroext i1 @_ZN10OpenSubdiv6v3_6_03Osd12OmpEvaluator11EvalPatchesEPKfRKNS1_16BufferDescriptorEPfS7_S8_S7_S8_S7_iPKNS1_10PatchCoordEPKNS1_10PatchArrayEPKiPKNS1_10PatchParamE(ptr noundef %0, ptr noundef nonnull align 4 dereferenceable(12) %1, ptr noundef %2, ptr noundef nonnull align 4 dereferenceable(12) %3, ptr noundef %4, ptr noundef nonnull align 4 dereferenceable(12) %5, ptr noundef %6, ptr noundef nonnull align 4 dereferenceable(12) %7, i32 noundef %8, ptr noundef %9, ptr noundef %10, ptr noundef %11, ptr noundef %12) #4 align 2 {
  %14 = alloca ptr, align 8
  %15 = alloca ptr, align 8
  %16 = alloca ptr, align 8
  %17 = alloca ptr, align 8
  %18 = alloca ptr, align 8
  %19 = alloca ptr, align 8
  %20 = alloca ptr, align 8
  %21 = alloca ptr, align 8
  %22 = alloca i32, align 4
  %23 = alloca ptr, align 8
  %24 = alloca ptr, align 8
  %25 = alloca ptr, align 8
  %26 = alloca ptr, align 8
  %27 = alloca %"struct.OpenSubdiv::v3_6_0::Osd::BufferAdapter", align 8
  store ptr %0, ptr %14, align 8
  store ptr %1, ptr %15, align 8
  store ptr %2, ptr %16, align 8
  store ptr %3, ptr %17, align 8
  store ptr %4, ptr %18, align 8
  store ptr %5, ptr %19, align 8
  store ptr %6, ptr %20, align 8
  store ptr %7, ptr %21, align 8
  store i32 %8, ptr %22, align 4
  store ptr %9, ptr %23, align 8
  store ptr %10, ptr %24, align 8
  store ptr %11, ptr %25, align 8
  store ptr %12, ptr %26, align 8
  %28 = load ptr, ptr %15, align 8
  %29 = getelementptr inbounds nuw %"struct.OpenSubdiv::v3_6_0::Osd::BufferDescriptor", ptr %28, i32 0, i32 0
  %30 = load i32, ptr %29, align 4
  %31 = load ptr, ptr %14, align 8
  %32 = sext i32 %30 to i64
  %33 = getelementptr inbounds float, ptr %31, i64 %32
  store ptr %33, ptr %14, align 8
  %34 = load ptr, ptr %16, align 8
  %35 = icmp ne ptr %34, null
  br i1 %35, label %36, label %43

36:                                               ; preds = %13
  %37 = load ptr, ptr %17, align 8
  %38 = getelementptr inbounds nuw %"struct.OpenSubdiv::v3_6_0::Osd::BufferDescriptor", ptr %37, i32 0, i32 0
  %39 = load i32, ptr %38, align 4
  %40 = load ptr, ptr %16, align 8
  %41 = sext i32 %39 to i64
  %42 = getelementptr inbounds float, ptr %40, i64 %41
  store ptr %42, ptr %16, align 8
  br label %43

43:                                               ; preds = %36, %13
  %44 = load ptr, ptr %18, align 8
  %45 = icmp ne ptr %44, null
  br i1 %45, label %46, label %53

46:                                               ; preds = %43
  %47 = load ptr, ptr %19, align 8
  %48 = getelementptr inbounds nuw %"struct.OpenSubdiv::v3_6_0::Osd::BufferDescriptor", ptr %47, i32 0, i32 0
  %49 = load i32, ptr %48, align 4
  %50 = load ptr, ptr %18, align 8
  %51 = sext i32 %49 to i64
  %52 = getelementptr inbounds float, ptr %50, i64 %51
  store ptr %52, ptr %18, align 8
  br label %53

53:                                               ; preds = %46, %43
  %54 = load ptr, ptr %20, align 8
  %55 = icmp ne ptr %54, null
  br i1 %55, label %56, label %63

56:                                               ; preds = %53
  %57 = load ptr, ptr %21, align 8
  %58 = getelementptr inbounds nuw %"struct.OpenSubdiv::v3_6_0::Osd::BufferDescriptor", ptr %57, i32 0, i32 0
  %59 = load i32, ptr %58, align 4
  %60 = load ptr, ptr %20, align 8
  %61 = sext i32 %59 to i64
  %62 = getelementptr inbounds float, ptr %60, i64 %61
  store ptr %62, ptr %20, align 8
  br label %63

63:                                               ; preds = %56, %53
  %64 = load ptr, ptr %14, align 8
  %65 = load ptr, ptr %15, align 8
  %66 = getelementptr inbounds nuw %"struct.OpenSubdiv::v3_6_0::Osd::BufferDescriptor", ptr %65, i32 0, i32 1
  %67 = load i32, ptr %66, align 4
  %68 = load ptr, ptr %15, align 8
  %69 = getelementptr inbounds nuw %"struct.OpenSubdiv::v3_6_0::Osd::BufferDescriptor", ptr %68, i32 0, i32 2
  %70 = load i32, ptr %69, align 4
  call void @_ZN10OpenSubdiv6v3_6_03Osd13BufferAdapterIKfEC2EPS3_ii(ptr noundef nonnull align 8 dereferenceable(16) %27, ptr noundef %64, i32 noundef %67, i32 noundef %70)
  %71 = load ptr, ptr %17, align 8
  %72 = load ptr, ptr %19, align 8
  %73 = load ptr, ptr %21, align 8
  call void (ptr, i32, ptr, ...) @__kmpc_fork_call(ptr @2, i32 12, ptr @_ZN10OpenSubdiv6v3_6_03Osd12OmpEvaluator11EvalPatchesEPKfRKNS1_16BufferDescriptorEPfS7_S8_S7_S8_S7_iPKNS1_10PatchCoordEPKNS1_10PatchArrayEPKiPKNS1_10PatchParamE.omp_outlined, ptr %22, ptr %16, ptr %71, ptr %18, ptr %72, ptr %20, ptr %73, ptr %23, ptr %24, ptr %26, ptr %25, ptr %27)
  ret i1 true
}