; Function Attrs: mustprogress nounwind uwtable
define noundef zeroext i1 @_ZN10OpenSubdiv6v3_6_03Osd12OmpEvaluator11EvalPatchesEPKfRKNS1_16BufferDescriptorEPfS7_S8_S7_S8_S7_iPKNS1_10PatchCoordEPKNS1_10PatchArrayEPKiPKNS1_10PatchParamE(ptr noundef %0, ptr nocapture noundef nonnull readonly align 4 dereferenceable(12) %1, ptr noundef %2, ptr noundef nonnull align 4 dereferenceable(12) %3, ptr noundef %4, ptr noundef nonnull align 4 dereferenceable(12) %5, ptr noundef %6, ptr noundef nonnull align 4 dereferenceable(12) %7, i32 noundef %8, ptr noundef %9, ptr noundef %10, ptr noundef %11, ptr noundef %12) local_unnamed_addr #4 align 2 {
  %14 = alloca ptr, align 8
  %15 = alloca ptr, align 8
  %16 = alloca ptr, align 8
  %17 = alloca i32, align 4
  %18 = alloca ptr, align 8
  %19 = alloca ptr, align 8
  %20 = alloca ptr, align 8
  %21 = alloca ptr, align 8
  %22 = alloca %"struct.OpenSubdiv::v3_6_0::Osd::BufferAdapter", align 8
  store ptr %2, ptr %14, align 8
  store ptr %4, ptr %15, align 8
  store ptr %6, ptr %16, align 8
  store i32 %8, ptr %17, align 4
  store ptr %9, ptr %18, align 8
  store ptr %10, ptr %19, align 8
  store ptr %11, ptr %20, align 8
  store ptr %12, ptr %21, align 8
  %23 = load i32, ptr %1, align 4
  %.not = icmp eq ptr %2, null
  br i1 %.not, label %28, label %24

24:                                               ; preds = %13
  %25 = load i32, ptr %3, align 4
  %26 = sext i32 %25 to i64
  %27 = getelementptr inbounds float, ptr %2, i64 %26
  store ptr %27, ptr %14, align 8
  br label %28

28:                                               ; preds = %24, %13
  %.not13 = icmp eq ptr %4, null
  br i1 %.not13, label %33, label %29

29:                                               ; preds = %28
  %30 = load i32, ptr %5, align 4
  %31 = sext i32 %30 to i64
  %32 = getelementptr inbounds float, ptr %4, i64 %31
  store ptr %32, ptr %15, align 8
  br label %33

33:                                               ; preds = %29, %28
  %.not14 = icmp eq ptr %6, null
  br i1 %.not14, label %38, label %34

34:                                               ; preds = %33
  %35 = load i32, ptr %7, align 4
  %36 = sext i32 %35 to i64
  %37 = getelementptr inbounds float, ptr %6, i64 %36
  store ptr %37, ptr %16, align 8
  br label %38

38:                                               ; preds = %34, %33
  %39 = sext i32 %23 to i64
  %40 = getelementptr inbounds float, ptr %0, i64 %39
  %41 = getelementptr inbounds nuw i8, ptr %1, i64 4
  %42 = load i32, ptr %41, align 4
  %43 = getelementptr inbounds nuw i8, ptr %1, i64 8
  %44 = load i32, ptr %43, align 4
  store ptr %40, ptr %22, align 8
  %45 = getelementptr inbounds nuw i8, ptr %22, i64 8
  store i32 %42, ptr %45, align 8
  %46 = getelementptr inbounds nuw i8, ptr %22, i64 12
  store i32 %44, ptr %46, align 4
  call void (ptr, i32, ptr, ...) @__kmpc_fork_call(ptr nonnull @2, i32 12, ptr nonnull @_ZN10OpenSubdiv6v3_6_03Osd12OmpEvaluator11EvalPatchesEPKfRKNS1_16BufferDescriptorEPfS7_S8_S7_S8_S7_iPKNS1_10PatchCoordEPKNS1_10PatchArrayEPKiPKNS1_10PatchParamE.omp_outlined, ptr nonnull %17, ptr nonnull %14, ptr nonnull %3, ptr nonnull %15, ptr nonnull %5, ptr nonnull %16, ptr nonnull %7, ptr nonnull %18, ptr nonnull %19, ptr nonnull %21, ptr nonnull %20, ptr nonnull %22)
  ret i1 true
}